target datalayout = "e-m:e-p270:32:32-p271:32:32-p272:64:64-i64:64-i128:128-f80:128-n8:16:32:64-S128"
target triple = "x86_64-unknown-linux-gnu"

%struct.rcu_head = type { ptr, ptr }
%struct.PhysPageEntry = type { i32 }
%struct.PhysPageMap = type { %struct.rcu_head, i32, i32, i32, i32, ptr, ptr }

@.str.1 = private unnamed_addr constant [25 x i8] c"../qemu/system/physmem.c\00", align 1
@.str.86 = private unnamed_addr constant [25 x i8] c"ret != PHYS_MAP_NODE_NIL\00", align 1
@__PRETTY_FUNCTION__.phys_map_node_alloc = private unnamed_addr constant [51 x i8] c"uint32_t phys_map_node_alloc(PhysPageMap *, _Bool)\00", align 1
@.str.87 = private unnamed_addr constant [27 x i8] c"ret != map->nodes_nb_alloc\00", align 1

; Function Attrs: nounwind sspstrong uwtable
define internal i32 @phys_map_node_alloc(ptr noundef %map, i1 noundef zeroext %leaf) #0 {
entry:
  %map.addr = alloca ptr, align 8
  %leaf.addr = alloca i8, align 1
  %i = alloca i32, align 4
  %ret = alloca i32, align 4
  %e = alloca %struct.PhysPageEntry, align 4
  %p = alloca ptr, align 8
  store ptr %map, ptr %map.addr, align 8
  %frombool = zext i1 %leaf to i8
  store i8 %frombool, ptr %leaf.addr, align 1
  %0 = load ptr, ptr %map.addr, align 8
  %nodes_nb = getelementptr inbounds %struct.PhysPageMap, ptr %0, i32 0, i32 3
  %1 = load i32, ptr %nodes_nb, align 8
  %inc = add i32 %1, 1
  store i32 %inc, ptr %nodes_nb, align 8
  store i32 %1, ptr %ret, align 4
  %2 = load ptr, ptr %map.addr, align 8
  %nodes = getelementptr inbounds %struct.PhysPageMap, ptr %2, i32 0, i32 5
  %3 = load ptr, ptr %nodes, align 8
  %4 = load i32, ptr %ret, align 4
  %idxprom = zext i32 %4 to i64
  %arrayidx = getelementptr [512 x %struct.PhysPageEntry], ptr %3, i64 %idxprom
  %arraydecay = getelementptr inbounds [512 x %struct.PhysPageEntry], ptr %arrayidx, i64 0, i64 0
  store ptr %arraydecay, ptr %p, align 8
  %5 = load i32, ptr %ret, align 4
  %cmp = icmp ne i32 %5, 67108863
  br i1 %cmp, label %if.then, label %if.else

if.then:                                          ; preds = %entry
  br label %if.end

if.else:                                          ; preds = %entry
  call void @__assert_fail(ptr noundef @.str.86, ptr noundef @.str.1, i32 noundef 193, ptr noundef @__PRETTY_FUNCTION__.phys_map_node_alloc) #13
  unreachable

if.end:                                           ; preds = %if.then
  %6 = load i32, ptr %ret, align 4
  %7 = load ptr, ptr %map.addr, align 8
  %nodes_nb_alloc = getelementptr inbounds %struct.PhysPageMap, ptr %7, i32 0, i32 4
  %8 = load i32, ptr %nodes_nb_alloc, align 4
  %cmp1 = icmp ne i32 %6, %8
  br i1 %cmp1, label %if.then2, label %if.else3

if.then2:                                         ; preds = %if.end
  br label %if.end4

if.else3:                                         ; preds = %if.end
  call void @__assert_fail(ptr noundef @.str.87, ptr noundef @.str.1, i32 noundef 194, ptr noundef @__PRETTY_FUNCTION__.phys_map_node_alloc) #13
  unreachable

if.end4:                                          ; preds = %if.then2
  %9 = load i8, ptr %leaf.addr, align 1
  %tobool = trunc i8 %9 to i1
  %cond = select i1 %tobool, i32 0, i32 1
  %bf.load = load i32, ptr %e, align 4
  %bf.value = and i32 %cond, 63
  %bf.clear = and i32 %bf.load, -64
  %bf.set = or i32 %bf.clear, %bf.value
  store i32 %bf.set, ptr %e, align 4
  %10 = load i8, ptr %leaf.addr, align 1
  %tobool5 = trunc i8 %10 to i1
  %cond6 = select i1 %tobool5, i32 0, i32 67108863
  %bf.load7 = load i32, ptr %e, align 4
  %bf.value8 = and i32 %cond6, 67108863
  %bf.shl = shl i32 %bf.value8, 6
  %bf.clear9 = and i32 %bf.load7, 63
  %bf.set10 = or i32 %bf.clear9, %bf.shl
  store i32 %bf.set10, ptr %e, align 4
  store i32 0, ptr %i, align 4
  br label %for.cond

for.cond:                                         ; preds = %for.inc, %if.end4
  %11 = load i32, ptr %i, align 4
  %cmp11 = icmp ult i32 %11, 512
  br i1 %cmp11, label %for.body, label %for.end

for.body:                                         ; preds = %for.cond
  %12 = load ptr, ptr %p, align 8
  %13 = load i32, ptr %i, align 4
  %idxprom12 = zext i32 %13 to i64
  %arrayidx13 = getelementptr %struct.PhysPageEntry, ptr %12, i64 %idxprom12
  call void @llvm.memcpy.p0.p0.i64(ptr align 4 %arrayidx13, ptr align 4 %e, i64 4, i1 false)
  br label %for.inc

for.inc:                                          ; preds = %for.body
  %14 = load i32, ptr %i, align 4
  %inc14 = add i32 %14, 1
  store i32 %inc14, ptr %i, align 4
  br label %for.cond, !llvm.loop !73

for.end:                                          ; preds = %for.cond
  %15 = load i32, ptr %ret, align 4
  ret i32 %15
}

; Function Attrs: nounwind sspstrong uwtable
define internal void @phys_page_set_level(ptr noundef %map, ptr noundef %lp, ptr noundef %index, ptr noundef %nb, i16 noundef zeroext %leaf, i32 noundef %level) #0 {
entry:
  %map.addr = alloca ptr, align 8
  %lp.addr = alloca ptr, align 8
  %index.addr = alloca ptr, align 8
  %nb.addr = alloca ptr, align 8
  %leaf.addr = alloca i16, align 2
  %level.addr = alloca i32, align 4
  %p = alloca ptr, align 8
  %step = alloca i64, align 8
  store ptr %map, ptr %map.addr, align 8
  store ptr %lp, ptr %lp.addr, align 8
  store ptr %index, ptr %index.addr, align 8
  store ptr %nb, ptr %nb.addr, align 8
  store i16 %leaf, ptr %leaf.addr, align 2
  store i32 %level, ptr %level.addr, align 4
  %0 = load i32, ptr %level.addr, align 4
  %mul = mul i32 %0, 9
  %sh_prom = zext i32 %mul to i64
  %shl = shl i64 1, %sh_prom
  store i64 %shl, ptr %step, align 8
  %1 = load ptr, ptr %lp.addr, align 8
  %bf.load = load i32, ptr %1, align 4
  %bf.clear = and i32 %bf.load, 63
  %tobool = icmp ne i32 %bf.clear, 0
  br i1 %tobool, label %land.lhs.true, label %if.end

land.lhs.true:                                    ; preds = %entry
  %2 = load ptr, ptr %lp.addr, align 8
  %bf.load1 = load i32, ptr %2, align 4
  %bf.lshr = lshr i32 %bf.load1, 6
  %cmp = icmp eq i32 %bf.lshr, 67108863
  br i1 %cmp, label %if.then, label %if.end

if.then:                                          ; preds = %land.lhs.true
  %3 = load ptr, ptr %map.addr, align 8
  %4 = load i32, ptr %level.addr, align 4
  %cmp2 = icmp eq i32 %4, 0
  %call = call i32 @phys_map_node_alloc(ptr noundef %3, i1 noundef zeroext %cmp2)
  %5 = load ptr, ptr %lp.addr, align 8
  %bf.load3 = load i32, ptr %5, align 4
  %bf.value = and i32 %call, 67108863
  %bf.shl = shl i32 %bf.value, 6
  %bf.clear4 = and i32 %bf.load3, 63
  %bf.set = or i32 %bf.clear4, %bf.shl
  store i32 %bf.set, ptr %5, align 4
  br label %if.end

if.end:                                           ; preds = %if.then, %land.lhs.true, %entry
  %6 = load ptr, ptr %map.addr, align 8
  %nodes = getelementptr inbounds %struct.PhysPageMap, ptr %6, i32 0, i32 5
  %7 = load ptr, ptr %nodes, align 8
  %8 = load ptr, ptr %lp.addr, align 8
  %bf.load5 = load i32, ptr %8, align 4
  %bf.lshr6 = lshr i32 %bf.load5, 6
  %idxprom = zext i32 %bf.lshr6 to i64
  %arrayidx = getelementptr [512 x %struct.PhysPageEntry], ptr %7, i64 %idxprom
  %arraydecay = getelementptr inbounds [512 x %struct.PhysPageEntry], ptr %arrayidx, i64 0, i64 0
  store ptr %arraydecay, ptr %p, align 8
  %9 = load ptr, ptr %p, align 8
  %10 = load ptr, ptr %index.addr, align 8
  %11 = load i64, ptr %10, align 8
  %12 = load i32, ptr %level.addr, align 4
  %mul7 = mul i32 %12, 9
  %sh_prom8 = zext i32 %mul7 to i64
  %shr = lshr i64 %11, %sh_prom8
  %and = and i64 %shr, 511
  %arrayidx9 = getelementptr %struct.PhysPageEntry, ptr %9, i64 %and
  store ptr %arrayidx9, ptr %lp.addr, align 8
  br label %while.cond

while.cond:                                       ; preds = %if.end28, %if.end
  %13 = load ptr, ptr %nb.addr, align 8
  %14 = load i64, ptr %13, align 8
  %tobool10 = icmp ne i64 %14, 0
  br i1 %tobool10, label %land.rhs, label %land.end

land.rhs:                                         ; preds = %while.cond
  %15 = load ptr, ptr %lp.addr, align 8
  %16 = load ptr, ptr %p, align 8
  %arrayidx11 = getelementptr %struct.PhysPageEntry, ptr %16, i64 512
  %cmp12 = icmp ult ptr %15, %arrayidx11
  br label %land.end

land.end:                                         ; preds = %land.rhs, %while.cond
  %17 = phi i1 [ false, %while.cond ], [ %cmp12, %land.rhs ]
  br i1 %17, label %while.body, label %while.end

while.body:                                       ; preds = %land.end
  %18 = load ptr, ptr %index.addr, align 8
  %19 = load i64, ptr %18, align 8
  %20 = load i64, ptr %step, align 8
  %sub = sub i64 %20, 1
  %and13 = and i64 %19, %sub
  %cmp14 = icmp eq i64 %and13, 0
  br i1 %cmp14, label %land.lhs.true15, label %if.else

land.lhs.true15:                                  ; preds = %while.body
  %21 = load ptr, ptr %nb.addr, align 8
  %22 = load i64, ptr %21, align 8
  %23 = load i64, ptr %step, align 8
  %cmp16 = icmp uge i64 %22, %23
  br i1 %cmp16, label %if.then17, label %if.else

if.then17:                                        ; preds = %land.lhs.true15
  %24 = load ptr, ptr %lp.addr, align 8
  %bf.load18 = load i32, ptr %24, align 4
  %bf.clear19 = and i32 %bf.load18, -64
  %bf.set20 = or i32 %bf.clear19, 0
  store i32 %bf.set20, ptr %24, align 4
  %25 = load i16, ptr %leaf.addr, align 2
  %conv = zext i16 %25 to i32
  %26 = load ptr, ptr %lp.addr, align 8
  %bf.load21 = load i32, ptr %26, align 4
  %bf.value22 = and i32 %conv, 67108863
  %bf.shl23 = shl i32 %bf.value22, 6
  %bf.clear24 = and i32 %bf.load21, 63
  %bf.set25 = or i32 %bf.clear24, %bf.shl23
  store i32 %bf.set25, ptr %26, align 4
  %27 = load i64, ptr %step, align 8
  %28 = load ptr, ptr %index.addr, align 8
  %29 = load i64, ptr %28, align 8
  %add = add i64 %29, %27
  store i64 %add, ptr %28, align 8
  %30 = load i64, ptr %step, align 8
  %31 = load ptr, ptr %nb.addr, align 8
  %32 = load i64, ptr %31, align 8
  %sub26 = sub i64 %32, %30
  store i64 %sub26, ptr %31, align 8
  br label %if.end28

if.else:                                          ; preds = %land.lhs.true15, %while.body
  %33 = load ptr, ptr %map.addr, align 8
  %34 = load ptr, ptr %lp.addr, align 8
  %35 = load ptr, ptr %index.addr, align 8
  %36 = load ptr, ptr %nb.addr, align 8
  %37 = load i16, ptr %leaf.addr, align 2
  %38 = load i32, ptr %level.addr, align 4
  %sub27 = sub i32 %38, 1
  call void @phys_page_set_level(ptr noundef %33, ptr noundef %34, ptr noundef %35, ptr noundef %36, i16 noundef zeroext %37, i32 noundef %sub27)
  br label %if.end28

if.end28:                                         ; preds = %if.else, %if.then17
  %39 = load ptr, ptr %lp.addr, align 8
  %incdec.ptr = getelementptr %struct.PhysPageEntry, ptr %39, i32 1
  store ptr %incdec.ptr, ptr %lp.addr, align 8
  br label %while.cond, !llvm.loop !72

while.end:                                        ; preds = %land.end
  ret void
}