; Function Attrs: nounwind sspstrong uwtable
define internal fastcc void @phys_page_set_level(ptr noundef captures(none) %map, ptr noundef captures(none) %lp, ptr noundef nonnull captures(none) %index, ptr noundef nonnull captures(none) %nb, i16 noundef zeroext %leaf, i32 noundef %level) unnamed_addr #0 {
entry:
  %mul = mul i32 %level, 9
  %sh_prom = zext i32 %mul to i64
  %shl = shl nuw i64 1, %sh_prom
  %bf.load = load i32, ptr %lp, align 4
  %bf.clear = and i32 %bf.load, 63
  %tobool.not = icmp ne i32 %bf.clear, 0
  %cmp = icmp ugt i32 %bf.load, -65
  %or.cond = and i1 %cmp, %tobool.not
  br i1 %or.cond, label %if.then, label %if.end

if.then:                                          ; preds = %entry
  %cmp2 = icmp ne i32 %level, 0
  %nodes_nb.i = getelementptr inbounds nuw i8, ptr %map, i64 24
  %0 = load i32, ptr %nodes_nb.i, align 8
  %inc.i = add i32 %0, 1
  store i32 %inc.i, ptr %nodes_nb.i, align 8
  %nodes.i = getelementptr inbounds nuw i8, ptr %map, i64 32
  %1 = load ptr, ptr %nodes.i, align 8
  %idxprom.i = zext i32 %0 to i64
  %arrayidx.i = getelementptr [512 x %struct.PhysPageEntry], ptr %1, i64 %idxprom.i
  %cmp.not.i = icmp eq i32 %0, 67108863
  br i1 %cmp.not.i, label %if.else.i, label %if.end.i

if.else.i:                                        ; preds = %if.then
  tail call void @__assert_fail(ptr noundef nonnull @.str.86, ptr noundef nonnull @.str.1, i32 noundef 193, ptr noundef nonnull @__PRETTY_FUNCTION__.phys_map_node_alloc) #27
  unreachable

if.end.i:                                         ; preds = %if.then
  %nodes_nb_alloc.i = getelementptr inbounds nuw i8, ptr %map, i64 28
  %2 = load i32, ptr %nodes_nb_alloc.i, align 4
  %cmp1.not.i = icmp eq i32 %0, %2
  br i1 %cmp1.not.i, label %if.else3.i, label %if.end4.i

if.else3.i:                                       ; preds = %if.end.i
  tail call void @__assert_fail(ptr noundef nonnull @.str.87, ptr noundef nonnull @.str.1, i32 noundef 194, ptr noundef nonnull @__PRETTY_FUNCTION__.phys_map_node_alloc) #27
  unreachable

if.end4.i:                                        ; preds = %if.end.i
  %cond.i = zext i1 %cmp2 to i32
  %cond6.i = select i1 %cmp2, i32 -64, i32 0
  %bf.set10.i = or disjoint i32 %cond6.i, %cond.i
  br label %for.body.i

for.body.i:                                       ; preds = %for.body.i, %if.end4.i
  %indvars.iv.i = phi i64 [ 0, %if.end4.i ], [ %indvars.iv.next.i, %for.body.i ]
  %arrayidx13.i = getelementptr %struct.PhysPageEntry, ptr %arrayidx.i, i64 %indvars.iv.i
  store i32 %bf.set10.i, ptr %arrayidx13.i, align 4
  %indvars.iv.next.i = add nuw nsw i64 %indvars.iv.i, 1
  %exitcond.not.i = icmp eq i64 %indvars.iv.next.i, 512
  br i1 %exitcond.not.i, label %phys_map_node_alloc.exit, label %for.body.i, !llvm.loop !87

phys_map_node_alloc.exit:                         ; preds = %for.body.i
  %bf.load3 = load i32, ptr %lp, align 4
  %bf.value = shl i32 %0, 6
  %bf.clear4 = and i32 %bf.load3, 63
  %bf.set = or disjoint i32 %bf.clear4, %bf.value
  store i32 %bf.set, ptr %lp, align 4
  br label %if.end

if.end:                                           ; preds = %phys_map_node_alloc.exit, %entry
  %bf.load5 = phi i32 [ %bf.set, %phys_map_node_alloc.exit ], [ %bf.load, %entry ]
  %nodes = getelementptr inbounds nuw i8, ptr %map, i64 32
  %3 = load ptr, ptr %nodes, align 8
  %bf.lshr6 = lshr i32 %bf.load5, 6
  %idxprom = zext nneg i32 %bf.lshr6 to i64
  %arrayidx = getelementptr [512 x %struct.PhysPageEntry], ptr %3, i64 %idxprom
  %4 = load i64, ptr %index, align 8
  %shr = lshr i64 %4, %sh_prom
  %and = and i64 %shr, 511
  %arrayidx9 = getelementptr %struct.PhysPageEntry, ptr %arrayidx, i64 %and
  %arrayidx11 = getelementptr i8, ptr %arrayidx, i64 2048
  %5 = load i64, ptr %nb, align 8
  %tobool1026 = icmp ne i64 %5, 0
  %cmp1227 = icmp ult ptr %arrayidx9, %arrayidx11
  %6 = select i1 %tobool1026, i1 %cmp1227, i1 false
  br i1 %6, label %while.body.lr.ph, label %while.end

while.body.lr.ph:                                 ; preds = %if.end
  %sub = add i64 %shl, -1
  %conv = zext i16 %leaf to i32
  %bf.shl23 = shl nuw nsw i32 %conv, 6
  %sub27 = add i32 %level, -1
  br label %while.body

while.body:                                       ; preds = %while.body.lr.ph, %if.end28
  %7 = phi i64 [ %5, %while.body.lr.ph ], [ %11, %if.end28 ]
  %lp.addr.028 = phi ptr [ %arrayidx9, %while.body.lr.ph ], [ %incdec.ptr, %if.end28 ]
  %8 = load i64, ptr %index, align 8
  %and13 = and i64 %8, %sub
  %cmp14 = icmp ne i64 %and13, 0
  %cmp16.not = icmp ult i64 %7, %shl
  %or.cond25 = select i1 %cmp14, i1 true, i1 %cmp16.not
  br i1 %or.cond25, label %if.else, label %if.then17

if.then17:                                        ; preds = %while.body
  store i32 %bf.shl23, ptr %lp.addr.028, align 4
  %9 = load i64, ptr %index, align 8
  %add = add i64 %9, %shl
  store i64 %add, ptr %index, align 8
  %10 = load i64, ptr %nb, align 8
  %sub26 = sub i64 %10, %shl
  store i64 %sub26, ptr %nb, align 8
  br label %if.end28

if.else:                                          ; preds = %while.body
  tail call fastcc void @phys_page_set_level(ptr noundef %map, ptr noundef %lp.addr.028, ptr noundef %index, ptr noundef %nb, i16 noundef zeroext %leaf, i32 noundef %sub27)
  %.pre = load i64, ptr %nb, align 8
  br label %if.end28

if.end28:                                         ; preds = %if.else, %if.then17
  %11 = phi i64 [ %.pre, %if.else ], [ %sub26, %if.then17 ]
  %incdec.ptr = getelementptr i8, ptr %lp.addr.028, i64 4
  %tobool10 = icmp ne i64 %11, 0
  %cmp12 = icmp ult ptr %incdec.ptr, %arrayidx11
  %12 = select i1 %tobool10, i1 %cmp12, i1 false
  br i1 %12, label %while.body, label %while.end, !llvm.loop !88

while.end:                                        ; preds = %if.end28, %if.end
  ret void
}